; Function Attrs: nounwind uwtable
define internal ptr @interp_get_config(ptr readnone captures(none) %0, ptr noundef %1, ptr noundef %2) #0 {
  %4 = alloca ptr, align 8
  %5 = alloca i32, align 4
  %6 = alloca %struct.PyInterpreterConfig, align 4
  call void @llvm.lifetime.start.p0(i64 8, ptr nonnull %4) #7
  store ptr null, ptr %4, align 8, !tbaa !15
  call void @llvm.lifetime.start.p0(i64 4, ptr nonnull %5) #7
  store i32 0, ptr %5, align 4, !tbaa !14
  %7 = call i32 (ptr, ptr, ptr, ptr, ...) @PyArg_ParseTupleAndKeywords(ptr noundef %1, ptr noundef %2, ptr noundef nonnull @.str.46, ptr noundef nonnull @interp_get_config.kwlist, ptr noundef nonnull %4, ptr noundef nonnull %5) #7
  %.not = icmp eq i32 %7, 0
  br i1 %.not, label %resolve_interp.exit.thread, label %8

8:                                                ; preds = %3
  %9 = load ptr, ptr %4, align 8, !tbaa !15
  %10 = icmp eq ptr %9, @_Py_NoneStruct
  br i1 %10, label %.thread, label %12

.thread:                                          ; preds = %8
  store ptr null, ptr %4, align 8, !tbaa !15
  %11 = load i32, ptr %5, align 4, !tbaa !14
  br label %15

12:                                               ; preds = %8
  %13 = load i32, ptr %5, align 4, !tbaa !14
  %14 = icmp eq ptr %9, null
  br i1 %14, label %15, label %18

15:                                               ; preds = %.thread, %12
  %16 = phi i32 [ %11, %.thread ], [ %13, %12 ]
  %17 = call ptr @PyInterpreterState_Get() #7
  br label %21

18:                                               ; preds = %12
  %19 = call ptr @_PyInterpreterState_LookUpIDObject(ptr noundef nonnull %9) #7
  %20 = icmp eq ptr %19, null
  br i1 %20, label %resolve_interp.exit.thread, label %21

21:                                               ; preds = %18, %15
  %22 = phi i1 [ true, %15 ], [ false, %18 ]
  %23 = phi i32 [ %16, %15 ], [ %13, %18 ]
  %24 = phi ptr [ null, %15 ], [ %9, %18 ]
  %.0.i = phi ptr [ %17, %15 ], [ %19, %18 ]
  %.not20.i = icmp eq i32 %23, 0
  br i1 %.not20.i, label %resolve_interp.exit, label %25

25:                                               ; preds = %21
  %26 = call i64 @_PyInterpreterState_GetWhence(ptr noundef %.0.i) #7
  %.not21.i = icmp eq i64 %26, 5
  br i1 %.not21.i, label %resolve_interp.exit, label %27

27:                                               ; preds = %25
  %28 = load ptr, ptr @PyExc_InterpreterError, align 8, !tbaa !15
  br i1 %22, label %29, label %31

29:                                               ; preds = %27
  %30 = call ptr (ptr, ptr, ...) @PyErr_Format(ptr noundef %28, ptr noundef nonnull @.str.40, ptr noundef nonnull @.str.47) #7
  br label %resolve_interp.exit.thread

31:                                               ; preds = %27
  %32 = call ptr (ptr, ptr, ...) @PyErr_Format(ptr noundef %28, ptr noundef nonnull @.str.41, ptr noundef nonnull @.str.47, ptr noundef nonnull %24) #7
  br label %resolve_interp.exit.thread

resolve_interp.exit:                              ; preds = %21, %25
  %33 = icmp eq ptr %.0.i, null
  br i1 %33, label %resolve_interp.exit.thread, label %34

34:                                               ; preds = %resolve_interp.exit
  call void @llvm.lifetime.start.p0(i64 28, ptr nonnull %6) #7
  %35 = call i32 @_PyInterpreterConfig_InitFromState(ptr noundef nonnull %6, ptr noundef nonnull %.0.i) #7
  %36 = icmp slt i32 %35, 0
  br i1 %36, label %Py_DECREF.exit, label %37

37:                                               ; preds = %34
  %38 = call ptr @_PyInterpreterConfig_AsDict(ptr noundef nonnull %6) #7
  %39 = icmp eq ptr %38, null
  br i1 %39, label %Py_DECREF.exit, label %40

40:                                               ; preds = %37
  %41 = call ptr @_PyNamespace_New(ptr noundef nonnull %38) #7
  %42 = load i32, ptr %38, align 8, !tbaa !11
  %.not.i = icmp sgt i32 %42, -1
  br i1 %.not.i, label %43, label %Py_DECREF.exit

43:                                               ; preds = %40
  %44 = add nsw i32 %42, -1
  store i32 %44, ptr %38, align 8, !tbaa !11
  %45 = icmp eq i32 %44, 0
  br i1 %45, label %46, label %Py_DECREF.exit

46:                                               ; preds = %43
  call void @_Py_Dealloc(ptr noundef nonnull %38) #7
  br label %Py_DECREF.exit

Py_DECREF.exit:                                   ; preds = %46, %43, %40, %37, %34
  %.2 = phi ptr [ null, %34 ], [ null, %37 ], [ %41, %40 ], [ %41, %43 ], [ %41, %46 ]
  call void @llvm.lifetime.end.p0(i64 28, ptr nonnull %6) #7
  br label %resolve_interp.exit.thread

resolve_interp.exit.thread:                       ; preds = %29, %31, %18, %Py_DECREF.exit, %resolve_interp.exit, %3
  %.0 = phi ptr [ null, %3 ], [ %.2, %Py_DECREF.exit ], [ null, %resolve_interp.exit ], [ null, %18 ], [ null, %31 ], [ null, %29 ]
  call void @llvm.lifetime.end.p0(i64 4, ptr nonnull %5) #7
  call void @llvm.lifetime.end.p0(i64 8, ptr nonnull %4) #7
  ret ptr %.0
}